target datalayout = "e-m:e-p270:32:32-p271:32:32-p272:64:64-i64:64-i128:128-f80:128-n8:16:32:64-S128"
target triple = "x86_64-pc-linux-gnu"

%"class.cv::Rect_" = type { i32, i32, i32, i32 }
%"class.cv::Size_" = type { i32, i32 }
%"class.cv::FeatureEvaluator" = type { ptr, i32, %"class.cv::Size_", %"class.cv::Size_", %"class.cv::Size_", %"class.cv::Size_", i32, %"class.cv::Mat", %"class.cv::Mat", %"class.cv::UMat", %"class.cv::UMat", %"class.cv::UMat", %"class.cv::UMat", %"struct.cv::Ptr" }
%"class.cv::Mat" = type { i32, i32, i32, i32, ptr, ptr, ptr, ptr, ptr, ptr, %"struct.cv::MatSize", %"struct.cv::MatStep" }
%"struct.cv::MatSize" = type { ptr }
%"struct.cv::MatStep" = type { ptr, [2 x i64] }
%"class.cv::UMat" = type { i32, i32, i32, i32, ptr, i32, ptr, i64, %"struct.cv::MatSize", %"struct.cv::MatStep" }
%"struct.cv::Ptr" = type { %"class.std::shared_ptr" }
%"class.std::shared_ptr" = type { %"class.std::__shared_ptr" }
%"class.std::__shared_ptr" = type { ptr, %"class.std::__shared_count" }
%"class.std::__shared_count" = type { ptr }
%"class.cv::HaarEvaluator" = type <{ %"class.cv::FeatureEvaluator", %"struct.cv::Ptr.29", %"struct.cv::Ptr.33", %"struct.cv::Ptr.33", i8, [3 x i8], i32, i32, %"class.cv::Vec", %"class.cv::Rect_", [4 x i8], ptr, ptr, float, [4 x i8] }>
%"struct.cv::Ptr.29" = type { %"class.std::shared_ptr.30" }
%"class.std::shared_ptr.30" = type { %"class.std::__shared_ptr.31" }
%"class.std::__shared_ptr.31" = type { ptr, %"class.std::__shared_count" }
%"struct.cv::Ptr.33" = type { %"class.std::shared_ptr.34" }
%"class.std::shared_ptr.34" = type { %"class.std::__shared_ptr.35" }
%"class.std::__shared_ptr.35" = type { ptr, %"class.std::__shared_count" }
%"class.cv::Vec" = type { %"class.cv::Matx" }
%"class.cv::Matx" = type { [4 x i32] }

; Function Attrs: mustprogress nounwind uwtable
define hidden { i64, i64 } @_ZNK2cv13HaarEvaluator11getNormRectEv(ptr noundef nonnull align 8 dereferenceable(696) %0) #6 align 2 {
  %2 = alloca %"class.cv::Rect_", align 4
  %3 = alloca ptr, align 8
  store ptr %0, ptr %3, align 8, !tbaa !193
  %4 = load ptr, ptr %3, align 8
  %5 = getelementptr inbounds nuw %"class.cv::HaarEvaluator", ptr %4, i32 0, i32 9
  call void @llvm.memcpy.p0.p0.i64(ptr align 4 %2, ptr align 4 %5, i64 16, i1 false), !tbaa.struct !29
  %6 = load { i64, i64 }, ptr %2, align 4
  ret { i64, i64 } %6
}